
/home/serd/repos/SOC/scr1/build/verilator_wf_AHB_MAX_imc_IPIC_1_TCM_1_VIRQ_1_TRACE_1/sbreak.elf:     file format elf32-littleriscv
/home/serd/repos/SOC/scr1/build/verilator_wf_AHB_MAX_imc_IPIC_1_TCM_1_VIRQ_1_TRACE_1/sbreak.elf
architecture: riscv:rv32, flags 0x00000112:
EXEC_P, HAS_SYMS, D_PAGED
start address 0x00000400

Program Header:
0x70000003 off    0x00000ab0 vaddr 0x00000000 paddr 0x00000000 align 2**0
         filesz 0x0000002d memsz 0x00000000 flags r--
    LOAD off    0x00000000 vaddr 0x00000000 paddr 0x00000000 align 2**12
         filesz 0x00000ab0 memsz 0x00000ab0 flags rwx
    LOAD off    0x00000c00 vaddr 0x0000fc00 paddr 0x0000fc00 align 2**12
         filesz 0x00000000 memsz 0x00000400 flags rw-

Sections:
Idx Name              Size      VMA       LMA       File off  Algn  Flags
  0 .text.init        000001b0  00000900  00000900  00000900  2**6  CONTENTS, ALLOC, LOAD, READONLY, CODE
  1 .text.start       0000006c  00000400  00000400  00000400  2**0  CONTENTS, ALLOC, LOAD, READONLY, CODE
  2 .text             000000a0  00000480  00000480  00000480  2**5  CONTENTS, ALLOC, LOAD, READONLY, CODE
  3 .data             00000020  00000520  00000520  00000520  2**4  CONTENTS, ALLOC, LOAD, DATA
  4 .tohost           00000048  00000540  00000540  00000540  2**6  CONTENTS, ALLOC, LOAD, DATA
  5 .sdata            00000018  00000588  00000588  00000588  2**0  ALLOC
  6 .tdata            00000000  000005a0  000005a0  00000ab0  2**0  CONTENTS, ALLOC, LOAD, DATA, THREAD_LOCAL
  7 .tbss             00000000  000005a0  000005a0  00000000  2**0  ALLOC, THREAD_LOCAL
  8 .bss              00000000  000005a0  000005a0  00000588  2**0  ALLOC
  9 .stack            00000400  0000fc00  0000fc00  00000c00  2**0  ALLOC
 10 .riscv.attributes 0000002d  00000000  00000000  00000ab0  2**0  CONTENTS, READONLY
SYMBOL TABLE:
00000900 l    d  .text.init	00000000 .text.init
00000400 l    d  .text.start	00000000 .text.start
00000480 l    d  .text	00000000 .text
00000520 l    d  .data	00000000 .data
00000540 l    d  .tohost	00000000 .tohost
00000588 l    d  .sdata	00000000 .sdata
000005a0 l    d  .tdata	00000000 .tdata
000005a0 l    d  .tbss	00000000 .tbss
000005a0 l    d  .bss	00000000 .bss
0000fc00 l    d  .stack	00000000 .stack
00000000 l    d  .riscv.attributes	00000000 .riscv.attributes
00000000 l    df *ABS*	00000000 sbreak.o
000004e0 l       .text	00000000 sc_exit
00000480 l       .text	00000000 MSG_BREAK
00000a00 l       .text.init	00000000 trap_vector
00000a50 l       .text.init	00000000 _report
00000a38 l       .text.init	00000000 breakpoint_handler_end
00000a28 l       .text.init	00000000 next_iter
00000a4e l       .text.init	00000000 handle_exception
00000a4e l       .text.init	00000000 other_exception
0000048c l       .text	00000000 _run_test
0000048e l       .text	00000000 do_break
00000496 l       .text	00000000 fail
000004a2 l       .text	00000000 pass
000004cc l       .text	00000000 ecall
00000400 g       *ABS*	00000000 STACK_SIZE
00000d88 g       .sdata	00000000 __global_pointer$
00000540 g       .data	00000000 end_signature
00000520 g       .data	00000000 begin_regstate
00000540 g       .data	00000000 begin_signature
00000400 g       .text.start	00000000 _start
00000020 g       *ABS*	00000000 CL_SIZE
000009f8 g       .text.init	00000000 SIM_STOP
000004b0  w      .text	00000000 mtvec_handler
000005a0 g       .bss	00000000 _end
00000580 g       .tohost	00000000 fromhost
00000540 g       .tohost	00000000 tohost
000009f4 g       .text.init	00000000 SIM_EXIT



Disassembly of section .text.init:

00000900 <SIM_EXIT-0xf4>:
	...

000009f4 <SIM_EXIT>:
 9f4:	00000013          	nop

000009f8 <SIM_STOP>:
 9f8:	0000006f          	j	9f8 <SIM_STOP>
 9fc:	ffff                	.2byte	0xffff
 9fe:	ffff                	.2byte	0xffff

00000a00 <trap_vector>:
 a00:	34202773          	csrr	a4,mcause
 a04:	47a1                	li	a5,8
 a06:	04f70563          	beq	a4,a5,a50 <_report>
 a0a:	47a5                	li	a5,9
 a0c:	04f70263          	beq	a4,a5,a50 <_report>
 a10:	47ad                	li	a5,11
 a12:	02f70f63          	beq	a4,a5,a50 <_report>
 a16:	478d                	li	a5,3
 a18:	02f71063          	bne	a4,a5,a38 <breakpoint_handler_end>
 a1c:	f0000837          	lui	a6,0xf0000
 a20:	00000897          	auipc	a7,0x0
 a24:	a6088893          	addi	a7,a7,-1440 # 480 <MSG_BREAK>

00000a28 <next_iter>:
 a28:	00088783          	lb	a5,0(a7)
 a2c:	c791                	beqz	a5,a38 <breakpoint_handler_end>
 a2e:	00f82023          	sw	a5,0(a6) # f0000000 <__global_pointer$+0xeffff278>
 a32:	0885                	addi	a7,a7,1
 a34:	ff5ff06f          	j	a28 <next_iter>

00000a38 <breakpoint_handler_end>:
 a38:	00000717          	auipc	a4,0x0
 a3c:	a7870713          	addi	a4,a4,-1416 # 4b0 <mtvec_handler>
 a40:	c311                	beqz	a4,a44 <breakpoint_handler_end+0xc>
 a42:	8702                	jr	a4
 a44:	34202773          	csrr	a4,mcause
 a48:	00075363          	bgez	a4,a4e <handle_exception>
 a4c:	a009                	j	a4e <handle_exception>

00000a4e <handle_exception>:
 a4e:	4505                	li	a0,1

00000a50 <_report>:
 a50:	a91ff06f          	j	4e0 <sc_exit>
 a54:	00000013          	nop
 a58:	00000013          	nop
 a5c:	00000013          	nop
 a60:	00000013          	nop
 a64:	00000013          	nop
 a68:	00000013          	nop
 a6c:	00000013          	nop
 a70:	00000013          	nop
 a74:	00000013          	nop
 a78:	00000013          	nop
 a7c:	00000013          	nop
	...

Disassembly of section .text.start:

00000400 <_start>:
 400:	f1402573          	csrr	a0,mhartid
 404:	e101                	bnez	a0,404 <_start+0x4>
 406:	4e01                	li	t3,0
 408:	00000297          	auipc	t0,0x0
 40c:	5f828293          	addi	t0,t0,1528 # a00 <trap_vector>
 410:	30529073          	csrw	mtvec,t0
 414:	4505                	li	a0,1
 416:	057e                	slli	a0,a0,0x1f
 418:	00054863          	bltz	a0,428 <_start+0x28>
 41c:	0ff0000f          	fence
 420:	85f2                	mv	a1,t3
 422:	4501                	li	a0,0
 424:	00000073          	ecall
 428:	00000293          	li	t0,0
 42c:	00028f63          	beqz	t0,44a <_start+0x4a>
 430:	10529073          	csrw	stvec,t0
 434:	62ad                	lui	t0,0xb
 436:	10928293          	addi	t0,t0,265 # b109 <__global_pointer$+0xa381>
 43a:	30229073          	csrw	medeleg,t0
 43e:	30202373          	csrr	t1,medeleg
 442:	00628463          	beq	t0,t1,44a <_start+0x4a>
 446:	6080006f          	j	a4e <handle_exception>
 44a:	30005073          	csrwi	mstatus,0
 44e:	6509                	lui	a0,0x2
 450:	80050513          	addi	a0,a0,-2048 # 1800 <__global_pointer$+0xa78>
 454:	30052073          	csrs	mstatus,a0
 458:	00000297          	auipc	t0,0x0
 45c:	03428293          	addi	t0,t0,52 # 48c <_run_test>
 460:	34129073          	csrw	mepc,t0
 464:	f1402573          	csrr	a0,mhartid
 468:	30200073          	mret

Disassembly of section .text:

00000480 <MSG_BREAK>:
 480:	7262                	flw	ft4,56(sp)
 482:	6165                	addi	sp,sp,112
 484:	72622d6b          	.4byte	0x72622d6b
 488:	6165                	addi	sp,sp,112
 48a:	          	.4byte	0x4e09006b

0000048c <_run_test>:
 48c:	4e09                	li	t3,2

0000048e <do_break>:
 48e:	9002                	ebreak
 490:	a019                	j	496 <fail>
 492:	01c01863          	bne	zero,t3,4a2 <pass>

00000496 <fail>:
 496:	0ff0000f          	fence
 49a:	85f2                	mv	a1,t3
 49c:	4505                	li	a0,1
 49e:	00000073          	ecall

000004a2 <pass>:
 4a2:	0ff0000f          	fence
 4a6:	85f2                	mv	a1,t3
 4a8:	4501                	li	a0,0
 4aa:	00000073          	ecall
 4ae:	0001                	nop

000004b0 <mtvec_handler>:
 4b0:	430d                	li	t1,3
 4b2:	342022f3          	csrr	t0,mcause
 4b6:	fe6290e3          	bne	t0,t1,496 <fail>
 4ba:	00000317          	auipc	t1,0x0
 4be:	fd430313          	addi	t1,t1,-44 # 48e <do_break>
 4c2:	341022f3          	csrr	t0,mepc
 4c6:	fc6298e3          	bne	t0,t1,496 <fail>
 4ca:	bfe1                	j	4a2 <pass>

000004cc <ecall>:
 4cc:	00000073          	ecall
	...

000004e0 <sc_exit>:
 4e0:	00000297          	auipc	t0,0x0
 4e4:	51428293          	addi	t0,t0,1300 # 9f4 <SIM_EXIT>
 4e8:	8282                	jr	t0
 4ea:	00000013          	nop
 4ee:	00000013          	nop
 4f2:	00000013          	nop
 4f6:	00000013          	nop
 4fa:	00000013          	nop
 4fe:	0001                	nop
	...

Disassembly of section .tohost:

00000540 <tohost>:
	...

00000580 <fromhost>:
	...
